target datalayout = "e-m:e-p270:32:32-p271:32:32-p272:64:64-i64:64-i128:128-f80:128-n8:16:32:64-S128"
target triple = "x86_64-pc-linux-gnu"

%"struct.OpenImageIO::v3_1_0::TypeDesc" = type { i8, i8, i8, i8, i32 }
%"class.OpenImageIO::v3_1_0::ImageSpec" = type { i32, i32, i32, i32, i32, i32, i32, i32, i32, i32, i32, i32, i32, i32, i32, i32, %"struct.OpenImageIO::v3_1_0::TypeDesc", %"class.std::vector", %"class.std::vector.4", i32, i32, i8, %"class.OpenImageIO::v3_1_0::ParamValueList" }
%"class.std::vector" = type { %"struct.std::_Vector_base" }
%"struct.std::_Vector_base" = type { %"struct.std::_Vector_base<OpenImageIO::v3_1_0::TypeDesc, std::allocator<OpenImageIO::v3_1_0::TypeDesc>>::_Vector_impl" }
%"struct.std::_Vector_base<OpenImageIO::v3_1_0::TypeDesc, std::allocator<OpenImageIO::v3_1_0::TypeDesc>>::_Vector_impl" = type { %"struct.std::_Vector_base<OpenImageIO::v3_1_0::TypeDesc, std::allocator<OpenImageIO::v3_1_0::TypeDesc>>::_Vector_impl_data" }
%"struct.std::_Vector_base<OpenImageIO::v3_1_0::TypeDesc, std::allocator<OpenImageIO::v3_1_0::TypeDesc>>::_Vector_impl_data" = type { ptr, ptr, ptr }
%"class.std::vector.4" = type { %"struct.std::_Vector_base.5" }
%"struct.std::_Vector_base.5" = type { %"struct.std::_Vector_base<std::__cxx11::basic_string<char>, std::allocator<std::__cxx11::basic_string<char>>>::_Vector_impl" }
%"struct.std::_Vector_base<std::__cxx11::basic_string<char>, std::allocator<std::__cxx11::basic_string<char>>>::_Vector_impl" = type { %"struct.std::_Vector_base<std::__cxx11::basic_string<char>, std::allocator<std::__cxx11::basic_string<char>>>::_Vector_impl_data" }
%"struct.std::_Vector_base<std::__cxx11::basic_string<char>, std::allocator<std::__cxx11::basic_string<char>>>::_Vector_impl_data" = type { ptr, ptr, ptr }
%"class.OpenImageIO::v3_1_0::ParamValueList" = type { %"class.std::vector.9" }
%"class.std::vector.9" = type { %"struct.std::_Vector_base.10" }
%"struct.std::_Vector_base.10" = type { %"struct.std::_Vector_base<OpenImageIO::v3_1_0::ParamValue, std::allocator<OpenImageIO::v3_1_0::ParamValue>>::_Vector_impl" }
%"struct.std::_Vector_base<OpenImageIO::v3_1_0::ParamValue, std::allocator<OpenImageIO::v3_1_0::ParamValue>>::_Vector_impl" = type { %"struct.std::_Vector_base<OpenImageIO::v3_1_0::ParamValue, std::allocator<OpenImageIO::v3_1_0::ParamValue>>::_Vector_impl_data" }
%"struct.std::_Vector_base<OpenImageIO::v3_1_0::ParamValue, std::allocator<OpenImageIO::v3_1_0::ParamValue>>::_Vector_impl_data" = type { ptr, ptr, ptr }
%"class.OpenImageIO::v3_1_0::ImageInput" = type { ptr, %"class.OpenImageIO::v3_1_0::ImageSpec", %"class.std::unique_ptr" }
%"class.std::unique_ptr" = type { %"struct.std::__uniq_ptr_data" }
%"struct.std::__uniq_ptr_data" = type { %"class.std::__uniq_ptr_impl" }
%"class.std::__uniq_ptr_impl" = type { %"class.std::tuple" }
%"class.std::tuple" = type { %"struct.std::_Tuple_impl" }
%"struct.std::_Tuple_impl" = type { %"struct.std::_Tuple_impl.14", %"struct.std::_Head_base.15" }
%"struct.std::_Tuple_impl.14" = type { %"struct.std::_Head_base" }
%"struct.std::_Head_base" = type { ptr }
%"struct.std::_Head_base.15" = type { ptr }
%"class.std::lock_guard" = type { ptr }

; Function Attrs: mustprogress nounwind uwtable
define linkonce_odr void @_ZNSt10lock_guardIRKN11OpenImageIO6v3_1_010ImageInputEED2Ev(ptr noundef nonnull align 8 dereferenceable(8) %0) unnamed_addr #7 comdat align 2 personality ptr @__gxx_personality_v0 {
  %2 = alloca ptr, align 8
  store ptr %0, ptr %2, align 8, !tbaa !292
  %3 = load ptr, ptr %2, align 8
  %4 = getelementptr inbounds nuw %"class.std::lock_guard", ptr %3, i32 0, i32 0
  %5 = load ptr, ptr %4, align 8, !tbaa !294
  invoke void @_ZNK11OpenImageIO6v3_1_010ImageInput6unlockEv(ptr noundef nonnull align 8 dereferenceable(184) %5)
          to label %6 unwind label %7

6:                                                ; preds = %1
  ret void

7:                                                ; preds = %1
  %8 = landingpad { ptr, i32 }
          catch ptr null
  %9 = extractvalue { ptr, i32 } %8, 0
  call void @__clang_call_terminate(ptr %9) #27
  unreachable
}

; Function Attrs: mustprogress uwtable
define linkonce_odr void @_ZNSt10lock_guardIRKN11OpenImageIO6v3_1_010ImageInputEEC2ES4_(ptr noundef nonnull align 8 dereferenceable(8) %0, ptr noundef nonnull align 8 dereferenceable(184) %1) unnamed_addr #8 comdat align 2 {
  %3 = alloca ptr, align 8
  %4 = alloca ptr, align 8
  store ptr %0, ptr %3, align 8, !tbaa !292
  store ptr %1, ptr %4, align 8, !tbaa !156
  %5 = load ptr, ptr %3, align 8
  %6 = getelementptr inbounds nuw %"class.std::lock_guard", ptr %5, i32 0, i32 0
  %7 = load ptr, ptr %4, align 8, !tbaa !156
  store ptr %7, ptr %6, align 8, !tbaa !156
  %8 = getelementptr inbounds nuw %"class.std::lock_guard", ptr %5, i32 0, i32 0
  %9 = load ptr, ptr %8, align 8, !tbaa !294
  call void @_ZNK11OpenImageIO6v3_1_010ImageInput4lockEv(ptr noundef nonnull align 8 dereferenceable(184) %9)
  ret void
}

; Function Attrs: mustprogress uwtable
define hidden noundef zeroext i1 @_ZN11OpenImageIO6v3_1_012OpenEXRInput17read_native_tilesEiiiiiiiiPv(ptr noundef nonnull align 8 dereferenceable(320) %0, i32 noundef %1, i32 noundef %2, i32 noundef %3, i32 noundef %4, i32 noundef %5, i32 noundef %6, i32 noundef %7, i32 noundef %8, ptr noundef %9) unnamed_addr #8 align 2 personality ptr @__gxx_personality_v0 {
  %11 = alloca i1, align 1
  %12 = alloca ptr, align 8
  %13 = alloca i32, align 4
  %14 = alloca i32, align 4
  %15 = alloca i32, align 4
  %16 = alloca i32, align 4
  %17 = alloca i32, align 4
  %18 = alloca i32, align 4
  %19 = alloca i32, align 4
  %20 = alloca i32, align 4
  %21 = alloca ptr, align 8
  %22 = alloca %"class.std::lock_guard", align 8
  %23 = alloca ptr, align 8
  %24 = alloca i32, align 4
  %25 = alloca i32, align 4
  store ptr %0, ptr %12, align 8, !tbaa !59
  store i32 %1, ptr %13, align 4, !tbaa !14
  store i32 %2, ptr %14, align 4, !tbaa !14
  store i32 %3, ptr %15, align 4, !tbaa !14
  store i32 %4, ptr %16, align 4, !tbaa !14
  store i32 %5, ptr %17, align 4, !tbaa !14
  store i32 %6, ptr %18, align 4, !tbaa !14
  store i32 %7, ptr %19, align 4, !tbaa !14
  store i32 %8, ptr %20, align 4, !tbaa !14
  store ptr %9, ptr %21, align 8, !tbaa !355
  %26 = load ptr, ptr %12, align 8
  call void @llvm.lifetime.start.p0(i64 8, ptr %22) #5
  call void @_ZNSt10lock_guardIRKN11OpenImageIO6v3_1_010ImageInputEEC2ES4_(ptr noundef nonnull align 8 dereferenceable(8) %22, ptr noundef nonnull align 8 dereferenceable(184) %26)
  %27 = load i32, ptr %13, align 4, !tbaa !14
  %28 = load i32, ptr %14, align 4, !tbaa !14
  %29 = invoke noundef zeroext i1 @_ZN11OpenImageIO6v3_1_012OpenEXRInput13seek_subimageEii(ptr noundef nonnull align 8 dereferenceable(320) %26, i32 noundef %27, i32 noundef %28)
          to label %30 unwind label %32

30:                                               ; preds = %10
  br i1 %29, label %36, label %31

31:                                               ; preds = %30
  store i1 false, ptr %11, align 1
  store i32 1, ptr %25, align 4
  br label %51

32:                                               ; preds = %36, %10
  %33 = landingpad { ptr, i32 }
          cleanup
  %34 = extractvalue { ptr, i32 } %33, 0
  store ptr %34, ptr %23, align 8
  %35 = extractvalue { ptr, i32 } %33, 1
  store i32 %35, ptr %24, align 4
  call void @_ZNSt10lock_guardIRKN11OpenImageIO6v3_1_010ImageInputEED2Ev(ptr noundef nonnull align 8 dereferenceable(8) %22) #5
  call void @llvm.lifetime.end.p0(i64 8, ptr %22) #5
  br label %53

36:                                               ; preds = %30
  %37 = load i32, ptr %13, align 4, !tbaa !14
  %38 = load i32, ptr %14, align 4, !tbaa !14
  %39 = load i32, ptr %15, align 4, !tbaa !14
  %40 = load i32, ptr %16, align 4, !tbaa !14
  %41 = load i32, ptr %17, align 4, !tbaa !14
  %42 = load i32, ptr %18, align 4, !tbaa !14
  %43 = load i32, ptr %19, align 4, !tbaa !14
  %44 = load i32, ptr %20, align 4, !tbaa !14
  %45 = getelementptr inbounds nuw %"class.OpenImageIO::v3_1_0::ImageInput", ptr %26, i32 0, i32 1
  %46 = getelementptr inbounds nuw %"class.OpenImageIO::v3_1_0::ImageSpec", ptr %45, i32 0, i32 15
  %47 = load i32, ptr %46, align 4, !tbaa !412
  %48 = load ptr, ptr %21, align 8, !tbaa !355
  %49 = invoke noundef zeroext i1 @_ZN11OpenImageIO6v3_1_012OpenEXRInput17read_native_tilesEiiiiiiiiiiPv(ptr noundef nonnull align 8 dereferenceable(320) %26, i32 noundef %37, i32 noundef %38, i32 noundef %39, i32 noundef %40, i32 noundef %41, i32 noundef %42, i32 noundef %43, i32 noundef %44, i32 noundef 0, i32 noundef %47, ptr noundef %48)
          to label %50 unwind label %32

50:                                               ; preds = %36
  store i1 %49, ptr %11, align 1
  store i32 1, ptr %25, align 4
  br label %51

51:                                               ; preds = %50, %31
  call void @_ZNSt10lock_guardIRKN11OpenImageIO6v3_1_010ImageInputEED2Ev(ptr noundef nonnull align 8 dereferenceable(8) %22) #5
  call void @llvm.lifetime.end.p0(i64 8, ptr %22) #5
  %52 = load i1, ptr %11, align 1
  ret i1 %52

53:                                               ; preds = %32
  %54 = load ptr, ptr %23, align 8
  %55 = load i32, ptr %24, align 4
  %56 = insertvalue { ptr, i32 } poison, ptr %54, 0
  %57 = insertvalue { ptr, i32 } %56, i32 %55, 1
  resume { ptr, i32 } %57
}