; Function Attrs: mustprogress uwtable
define hidden noundef zeroext i1 @_ZN11OpenImageIO6v3_1_012OpenEXRInput17read_native_tilesEiiiiiiiiPv(ptr noundef nonnull align 8 dereferenceable(320) %0, i32 noundef %1, i32 noundef %2, i32 noundef %3, i32 noundef %4, i32 noundef %5, i32 noundef %6, i32 noundef %7, i32 noundef %8, ptr noundef %9) unnamed_addr #6 align 2 personality ptr @__gxx_personality_v0 {
  tail call void @_ZNK11OpenImageIO6v3_1_010ImageInput4lockEv(ptr noundef nonnull align 8 dereferenceable(184) %0)
  %11 = invoke noundef zeroext i1 @_ZN11OpenImageIO6v3_1_012OpenEXRInput13seek_subimageEii(ptr noundef nonnull align 8 dereferenceable(320) %0, i32 noundef %1, i32 noundef %2)
          to label %12 unwind label %13

12:                                               ; preds = %10
  br i1 %11, label %18, label %22

13:                                               ; preds = %18, %10
  %14 = landingpad { ptr, i32 }
          cleanup
  invoke void @_ZNK11OpenImageIO6v3_1_010ImageInput6unlockEv(ptr noundef nonnull align 8 dereferenceable(184) %0)
          to label %_ZNSt10lock_guardIRKN11OpenImageIO6v3_1_010ImageInputEED2Ev.exit unwind label %15

15:                                               ; preds = %13
  %16 = landingpad { ptr, i32 }
          catch ptr null
  %17 = extractvalue { ptr, i32 } %16, 0
  tail call void @__clang_call_terminate(ptr %17) #35
  unreachable

_ZNSt10lock_guardIRKN11OpenImageIO6v3_1_010ImageInputEED2Ev.exit: ; preds = %13
  resume { ptr, i32 } %14

18:                                               ; preds = %12
  %19 = getelementptr inbounds nuw i8, ptr %0, i64 68
  %20 = load i32, ptr %19, align 4, !tbaa !345
  %21 = invoke noundef zeroext i1 @_ZN11OpenImageIO6v3_1_012OpenEXRInput17read_native_tilesEiiiiiiiiiiPv(ptr noundef nonnull align 8 dereferenceable(320) %0, i32 noundef %1, i32 noundef %2, i32 noundef %3, i32 noundef %4, i32 noundef %5, i32 noundef %6, i32 noundef %7, i32 noundef %8, i32 noundef 0, i32 noundef %20, ptr noundef %9)
          to label %22 unwind label %13

22:                                               ; preds = %18, %12
  %.0 = phi i1 [ false, %12 ], [ %21, %18 ]
  invoke void @_ZNK11OpenImageIO6v3_1_010ImageInput6unlockEv(ptr noundef nonnull align 8 dereferenceable(184) %0)
          to label %_ZNSt10lock_guardIRKN11OpenImageIO6v3_1_010ImageInputEED2Ev.exit14 unwind label %23

23:                                               ; preds = %22
  %24 = landingpad { ptr, i32 }
          catch ptr null
  %25 = extractvalue { ptr, i32 } %24, 0
  tail call void @__clang_call_terminate(ptr %25) #35
  unreachable

_ZNSt10lock_guardIRKN11OpenImageIO6v3_1_010ImageInputEED2Ev.exit14: ; preds = %22
  ret i1 %.0
}